; Function Attrs: nounwind uwtable
define range(i32 -23, 1) i32 @IDAWFtolerances(ptr noundef captures(address_is_null) %0, ptr noundef %1) local_unnamed_addr #0 {
  %3 = icmp eq ptr %0, null
  br i1 %3, label %4, label %5

4:                                                ; preds = %2
  tail call void (ptr, i32, i32, ptr, ptr, ptr, ...) @IDAProcessError(ptr noundef null, i32 noundef -20, i32 noundef 996, ptr noundef nonnull @__func__.IDAWFtolerances, ptr noundef nonnull @.str, ptr noundef nonnull @.str.3)
  br label %15

5:                                                ; preds = %2
  %6 = getelementptr inbounds nuw i8, ptr %0, i64 1696
  %7 = load i32, ptr %6, align 8, !tbaa !140
  %8 = icmp eq i32 %7, 0
  br i1 %8, label %9, label %10

9:                                                ; preds = %5
  tail call void (ptr, i32, i32, ptr, ptr, ptr, ...) @IDAProcessError(ptr noundef nonnull %0, i32 noundef -23, i32 noundef 1003, ptr noundef nonnull @__func__.IDAWFtolerances, ptr noundef nonnull @.str, ptr noundef nonnull @.str.9)
  br label %15

10:                                               ; preds = %5
  %11 = getelementptr inbounds nuw i8, ptr %0, i64 32
  store i32 3, ptr %11, align 8, !tbaa !150
  %12 = getelementptr inbounds nuw i8, ptr %0, i64 68
  store i32 1, ptr %12, align 4, !tbaa !151
  %13 = getelementptr inbounds nuw i8, ptr %0, i64 72
  store ptr %1, ptr %13, align 8, !tbaa !152
  %14 = getelementptr inbounds nuw i8, ptr %0, i64 80
  store ptr null, ptr %14, align 8, !tbaa !153
  br label %15

15:                                               ; preds = %10, %9, %4
  %.0 = phi i32 [ -20, %4 ], [ -23, %9 ], [ 0, %10 ]
  ret i32 %.0
}